target datalayout = "e-m:e-p270:32:32-p271:32:32-p272:64:64-i64:64-i128:128-f80:128-n8:16:32:64-S128"
target triple = "x86_64-pc-linux-gnu"

%"class.cv::Point_" = type { float, float }
%"struct.cv::details::Chessboard::Board::Cell" = type <{ ptr, ptr, ptr, ptr, ptr, ptr, ptr, ptr, i8, i8, [6 x i8] }>

; Function Attrs: mustprogress nounwind uwtable
define hidden noundef zeroext i1 @_ZNK2cv7details10Chessboard5Board4Cell5emptyEv(ptr noundef nonnull align 8 dereferenceable(66) %0) #7 align 2 {
  %2 = alloca i1, align 1
  %3 = alloca ptr, align 8
  store ptr %0, ptr %3, align 8, !tbaa !214
  %4 = load ptr, ptr %3, align 8
  %5 = getelementptr inbounds nuw %"struct.cv::details::Chessboard::Board::Cell", ptr %4, i32 0, i32 0
  %6 = load ptr, ptr %5, align 8, !tbaa !216
  %7 = getelementptr inbounds nuw %"class.cv::Point_", ptr %6, i32 0, i32 0
  %8 = load float, ptr %7, align 4, !tbaa !44
  %9 = getelementptr inbounds nuw %"struct.cv::details::Chessboard::Board::Cell", ptr %4, i32 0, i32 0
  %10 = load ptr, ptr %9, align 8, !tbaa !216
  %11 = getelementptr inbounds nuw %"class.cv::Point_", ptr %10, i32 0, i32 0
  %12 = load float, ptr %11, align 4, !tbaa !44
  %13 = fcmp une float %8, %12
  br i1 %13, label %24, label %14

14:                                               ; preds = %1
  %15 = getelementptr inbounds nuw %"struct.cv::details::Chessboard::Board::Cell", ptr %4, i32 0, i32 0
  %16 = load ptr, ptr %15, align 8, !tbaa !216
  %17 = getelementptr inbounds nuw %"class.cv::Point_", ptr %16, i32 0, i32 1
  %18 = load float, ptr %17, align 4, !tbaa !46
  %19 = getelementptr inbounds nuw %"struct.cv::details::Chessboard::Board::Cell", ptr %4, i32 0, i32 0
  %20 = load ptr, ptr %19, align 8, !tbaa !216
  %21 = getelementptr inbounds nuw %"class.cv::Point_", ptr %20, i32 0, i32 1
  %22 = load float, ptr %21, align 4, !tbaa !46
  %23 = fcmp une float %18, %22
  br i1 %23, label %24, label %25

24:                                               ; preds = %14, %1
  store i1 true, ptr %2, align 1
  br label %89

25:                                               ; preds = %14
  %26 = getelementptr inbounds nuw %"struct.cv::details::Chessboard::Board::Cell", ptr %4, i32 0, i32 1
  %27 = load ptr, ptr %26, align 8, !tbaa !219
  %28 = getelementptr inbounds nuw %"class.cv::Point_", ptr %27, i32 0, i32 0
  %29 = load float, ptr %28, align 4, !tbaa !44
  %30 = getelementptr inbounds nuw %"struct.cv::details::Chessboard::Board::Cell", ptr %4, i32 0, i32 1
  %31 = load ptr, ptr %30, align 8, !tbaa !219
  %32 = getelementptr inbounds nuw %"class.cv::Point_", ptr %31, i32 0, i32 0
  %33 = load float, ptr %32, align 4, !tbaa !44
  %34 = fcmp une float %29, %33
  br i1 %34, label %45, label %35

35:                                               ; preds = %25
  %36 = getelementptr inbounds nuw %"struct.cv::details::Chessboard::Board::Cell", ptr %4, i32 0, i32 1
  %37 = load ptr, ptr %36, align 8, !tbaa !219
  %38 = getelementptr inbounds nuw %"class.cv::Point_", ptr %37, i32 0, i32 1
  %39 = load float, ptr %38, align 4, !tbaa !46
  %40 = getelementptr inbounds nuw %"struct.cv::details::Chessboard::Board::Cell", ptr %4, i32 0, i32 1
  %41 = load ptr, ptr %40, align 8, !tbaa !219
  %42 = getelementptr inbounds nuw %"class.cv::Point_", ptr %41, i32 0, i32 1
  %43 = load float, ptr %42, align 4, !tbaa !46
  %44 = fcmp une float %39, %43
  br i1 %44, label %45, label %46

45:                                               ; preds = %35, %25
  store i1 true, ptr %2, align 1
  br label %89

46:                                               ; preds = %35
  %47 = getelementptr inbounds nuw %"struct.cv::details::Chessboard::Board::Cell", ptr %4, i32 0, i32 2
  %48 = load ptr, ptr %47, align 8, !tbaa !220
  %49 = getelementptr inbounds nuw %"class.cv::Point_", ptr %48, i32 0, i32 0
  %50 = load float, ptr %49, align 4, !tbaa !44
  %51 = getelementptr inbounds nuw %"struct.cv::details::Chessboard::Board::Cell", ptr %4, i32 0, i32 2
  %52 = load ptr, ptr %51, align 8, !tbaa !220
  %53 = getelementptr inbounds nuw %"class.cv::Point_", ptr %52, i32 0, i32 0
  %54 = load float, ptr %53, align 4, !tbaa !44
  %55 = fcmp une float %50, %54
  br i1 %55, label %66, label %56

56:                                               ; preds = %46
  %57 = getelementptr inbounds nuw %"struct.cv::details::Chessboard::Board::Cell", ptr %4, i32 0, i32 2
  %58 = load ptr, ptr %57, align 8, !tbaa !220
  %59 = getelementptr inbounds nuw %"class.cv::Point_", ptr %58, i32 0, i32 1
  %60 = load float, ptr %59, align 4, !tbaa !46
  %61 = getelementptr inbounds nuw %"struct.cv::details::Chessboard::Board::Cell", ptr %4, i32 0, i32 2
  %62 = load ptr, ptr %61, align 8, !tbaa !220
  %63 = getelementptr inbounds nuw %"class.cv::Point_", ptr %62, i32 0, i32 1
  %64 = load float, ptr %63, align 4, !tbaa !46
  %65 = fcmp une float %60, %64
  br i1 %65, label %66, label %67

66:                                               ; preds = %56, %46
  store i1 true, ptr %2, align 1
  br label %89

67:                                               ; preds = %56
  %68 = getelementptr inbounds nuw %"struct.cv::details::Chessboard::Board::Cell", ptr %4, i32 0, i32 3
  %69 = load ptr, ptr %68, align 8, !tbaa !218
  %70 = getelementptr inbounds nuw %"class.cv::Point_", ptr %69, i32 0, i32 0
  %71 = load float, ptr %70, align 4, !tbaa !44
  %72 = getelementptr inbounds nuw %"struct.cv::details::Chessboard::Board::Cell", ptr %4, i32 0, i32 3
  %73 = load ptr, ptr %72, align 8, !tbaa !218
  %74 = getelementptr inbounds nuw %"class.cv::Point_", ptr %73, i32 0, i32 0
  %75 = load float, ptr %74, align 4, !tbaa !44
  %76 = fcmp une float %71, %75
  br i1 %76, label %87, label %77

77:                                               ; preds = %67
  %78 = getelementptr inbounds nuw %"struct.cv::details::Chessboard::Board::Cell", ptr %4, i32 0, i32 3
  %79 = load ptr, ptr %78, align 8, !tbaa !218
  %80 = getelementptr inbounds nuw %"class.cv::Point_", ptr %79, i32 0, i32 1
  %81 = load float, ptr %80, align 4, !tbaa !46
  %82 = getelementptr inbounds nuw %"struct.cv::details::Chessboard::Board::Cell", ptr %4, i32 0, i32 3
  %83 = load ptr, ptr %82, align 8, !tbaa !218
  %84 = getelementptr inbounds nuw %"class.cv::Point_", ptr %83, i32 0, i32 1
  %85 = load float, ptr %84, align 4, !tbaa !46
  %86 = fcmp une float %81, %85
  br i1 %86, label %87, label %88

87:                                               ; preds = %77, %67
  store i1 true, ptr %2, align 1
  br label %89

88:                                               ; preds = %77
  store i1 false, ptr %2, align 1
  br label %89

89:                                               ; preds = %88, %87, %66, %45, %24
  %90 = load i1, ptr %2, align 1
  ret i1 %90
}