; Function Attrs: mustprogress nofree norecurse nosync nounwind willreturn memory(read, inaccessiblemem: none) uwtable
define hidden noundef zeroext i1 @_ZNK2cv7details10Chessboard5Board4Cell5emptyEv(ptr noundef nonnull readonly align 8 captures(none) dereferenceable(66) %0) local_unnamed_addr #18 align 2 {
  %2 = load ptr, ptr %0, align 8, !tbaa !178
  %3 = load float, ptr %2, align 4, !tbaa !168
  %4 = fcmp uno float %3, 0.000000e+00
  br i1 %4, label %37, label %5

5:                                                ; preds = %1
  %6 = getelementptr inbounds nuw i8, ptr %2, i64 4
  %7 = load float, ptr %6, align 4, !tbaa !169
  %8 = fcmp uno float %7, 0.000000e+00
  br i1 %8, label %37, label %9

9:                                                ; preds = %5
  %10 = getelementptr inbounds nuw i8, ptr %0, i64 8
  %11 = load ptr, ptr %10, align 8, !tbaa !182
  %12 = load float, ptr %11, align 4, !tbaa !168
  %13 = fcmp uno float %12, 0.000000e+00
  br i1 %13, label %37, label %14

14:                                               ; preds = %9
  %15 = getelementptr inbounds nuw i8, ptr %11, i64 4
  %16 = load float, ptr %15, align 4, !tbaa !169
  %17 = fcmp uno float %16, 0.000000e+00
  br i1 %17, label %37, label %18

18:                                               ; preds = %14
  %19 = getelementptr inbounds nuw i8, ptr %0, i64 16
  %20 = load ptr, ptr %19, align 8, !tbaa !183
  %21 = load float, ptr %20, align 4, !tbaa !168
  %22 = fcmp uno float %21, 0.000000e+00
  br i1 %22, label %37, label %23

23:                                               ; preds = %18
  %24 = getelementptr inbounds nuw i8, ptr %20, i64 4
  %25 = load float, ptr %24, align 4, !tbaa !169
  %26 = fcmp uno float %25, 0.000000e+00
  br i1 %26, label %37, label %27

27:                                               ; preds = %23
  %28 = getelementptr inbounds nuw i8, ptr %0, i64 24
  %29 = load ptr, ptr %28, align 8, !tbaa !184
  %30 = load float, ptr %29, align 4, !tbaa !168
  %31 = fcmp uno float %30, 0.000000e+00
  br i1 %31, label %37, label %32

32:                                               ; preds = %27
  %33 = getelementptr inbounds nuw i8, ptr %29, i64 4
  %34 = load float, ptr %33, align 4, !tbaa !169
  %35 = fcmp uno float %34, 0.000000e+00
  br i1 %35, label %37, label %36

36:                                               ; preds = %32
  br label %37

37:                                               ; preds = %27, %32, %18, %23, %9, %14, %1, %5, %36
  %.0 = phi i1 [ false, %36 ], [ true, %5 ], [ true, %1 ], [ true, %14 ], [ true, %9 ], [ true, %23 ], [ true, %18 ], [ true, %32 ], [ true, %27 ]
  ret i1 %.0
}